EXPORTS
    _ZN2BC4Base10ObjManager6delObjEi @1
    _ZN2BC4Base10ObjManager6regObjERNS0_3ObjE @2
    _ZN2BC4Base10ObjManagerC1Ev @3
    _ZN2BC4Base10ObjManagerC2Ev @4
    _ZN2BC4Base10ObjManagerD1Ev @5
    _ZN2BC4Base10ObjManagerD2Ev @6
    _ZN2BC4Base10VectorLike9onMessageENSt7__cxx1112basic_stringIcSt11char_traitsIcESaIcEEESt6vectorIPNS0_8BasicObjESaISA_EE @7
    _ZN2BC4Base10VectorLikeC1Ev @8
    _ZN2BC4Base10VectorLikeC2Ev @9
    _ZN2BC4Base10VectorLikeD0Ev @10
    _ZN2BC4Base10VectorLikeD1Ev @11
    _ZN2BC4Base10VectorLikeD2Ev @12
    _ZN2BC4Base12get_curr_appEv @13
    _ZN2BC4Base12set_curr_appEPNS0_3AppE @14
    _ZN2BC4Base13__BasicVector3delEi @15
    _ZN2BC4Base13__BasicVector7setSizeEi @16
    _ZN2BC4Base13__BasicVector8pushBackERNS0_8BasicObjE @17
    _ZN2BC4Base13__BasicVectorC1Ev @18
    _ZN2BC4Base13__BasicVectorC2Ev @19
    _ZN2BC4Base13__BasicVectorD0Ev @20
    _ZN2BC4Base13__BasicVectorD1Ev @21
    _ZN2BC4Base13__BasicVectorD2Ev @22
    _ZN2BC4Base3App13getNOInstanceEv @23
    _ZN2BC4Base3App13getOMInstanceEv @24
    _ZN2BC4Base3App7setNameENSt7__cxx1112basic_stringIcSt11char_traitsIcESaIcEEE @25
    _ZN2BC4Base3AppC1ENSt7__cxx1112basic_stringIcSt11char_traitsIcESaIcEEE @26
    _ZN2BC4Base3AppC2ENSt7__cxx1112basic_stringIcSt11char_traitsIcESaIcEEE @27
    _ZN2BC4Base3AppD1Ev @28
    _ZN2BC4Base3AppD2Ev @29
    _ZN2BC4Base3Obj14setAutoReleaseEv @30
    _ZN2BC4Base3Obj16unsetAutoReleaseEv @31
    _ZN2BC4Base3Obj6retainEv @32
    _ZN2BC4Base3Obj7releaseEv @33
    _ZN2BC4Base3Obj7setNickERKNSt7__cxx1112basic_stringIcSt11char_traitsIcESaIcEEE @34
    _ZN2BC4Base3Obj9onMessageENSt7__cxx1112basic_stringIcSt11char_traitsIcESaIcEEESt6vectorIPNS0_8BasicObjESaISA_EE @35
    _ZN2BC4Base3ObjC1Ev @36
    _ZN2BC4Base3ObjC2Ev @37
    _ZN2BC4Base3ObjD0Ev @38
    _ZN2BC4Base3ObjD1Ev @39
    _ZN2BC4Base3ObjD2Ev @40
    _ZN2BC4Base8BasicObj11sendMessageERS1_NSt7__cxx1112basic_stringIcSt11char_traitsIcESaIcEEESt6vectorIPS1_SaISA_EE @41
    _ZN2BC4Base8BasicObj9onMessageENSt7__cxx1112basic_stringIcSt11char_traitsIcESaIcEEESt6vectorIPS1_SaIS9_EE @42
    _ZN2BC4Base8BasicObjC1Ev @43
    _ZN2BC4Base8BasicObjC2Ev @44
    _ZN2BC4Base8BasicObjD0Ev @45
    _ZN2BC4Base8BasicObjD1Ev @46
    _ZN2BC4Base8BasicObjD2Ev @47
    _ZN2BC4Base8__Vector3delEi @48
    _ZN2BC4Base8__Vector7delByIdEi @49
    _ZN2BC4Base8__Vector8pushBackERNS0_3ObjE @50
    _ZN2BC4Base8__VectorC1Ev @51
    _ZN2BC4Base8__VectorC2Ev @52
    _ZN2BC4Base8__VectorD0Ev @53
    _ZN2BC4Base8__VectorD1Ev @54
    _ZN2BC4Base8__VectorD2Ev @55
    _ZN2BC4Base8curr_appE @56 DATA
    _ZN9__gnu_cxx13new_allocatorIPN2BC4Base8BasicObjEE10deallocateEPS4_j @57
    _ZN9__gnu_cxx13new_allocatorIPN2BC4Base8BasicObjEE7destroyIS4_EEvPT_ @58
    _ZN9__gnu_cxx13new_allocatorIPN2BC4Base8BasicObjEE8allocateEjPKv @59
    _ZN9__gnu_cxx13new_allocatorIPN2BC4Base8BasicObjEE9constructIS4_JS4_EEEvPT_DpOT0_ @60
    _ZN9__gnu_cxx13new_allocatorIPN2BC4Base8BasicObjEEC2ERKS5_ @61
    _ZN9__gnu_cxx13new_allocatorIPN2BC4Base8BasicObjEEC2Ev @62
    _ZN9__gnu_cxx13new_allocatorIPN2BC4Base8BasicObjEED2Ev @63
    _ZN9__gnu_cxx13new_allocatorISt13_Rb_tree_nodeISt4pairIKiPN2BC4Base3ObjEEEE10deallocateEPS9_j @64
    _ZN9__gnu_cxx13new_allocatorISt13_Rb_tree_nodeISt4pairIKiPN2BC4Base3ObjEEEE7destroyIS8_EEvPT_ @65
    _ZN9__gnu_cxx13new_allocatorISt13_Rb_tree_nodeISt4pairIKiPN2BC4Base3ObjEEEE8allocateEjPKv @66
    _ZN9__gnu_cxx13new_allocatorISt13_Rb_tree_nodeISt4pairIKiPN2BC4Base3ObjEEEE9constructIS8_JS2_IiS7_EEEEvPT_DpOT0_ @67
    _ZN9__gnu_cxx13new_allocatorISt13_Rb_tree_nodeISt4pairIKiPN2BC4Base3ObjEEEEC2Ev @68
    _ZN9__gnu_cxx13new_allocatorISt13_Rb_tree_nodeISt4pairIKiPN2BC4Base3ObjEEEED2Ev @69
    _ZN9__gnu_cxx14__alloc_traitsISaIPN2BC4Base8BasicObjEEE17_S_select_on_copyERKS5_ @70
    _ZN9__gnu_cxx16__aligned_membufISt4pairIKiPN2BC4Base3ObjEEE6_M_ptrEv @71
    _ZN9__gnu_cxx16__aligned_membufISt4pairIKiPN2BC4Base3ObjEEE7_M_addrEv @72
    _ZN9__gnu_cxx17__normal_iteratorIPKPN2BC4Base8BasicObjESt6vectorIS4_SaIS4_EEEC1ERKS6_ @73
    _ZN9__gnu_cxx17__normal_iteratorIPKPN2BC4Base8BasicObjESt6vectorIS4_SaIS4_EEEC1IPS4_EERKNS0_IT_NS_11__enable_ifIXsrSt10__are_sameISD_SC_E7__valueES9_E6__typeEEE @74
    _ZN9__gnu_cxx17__normal_iteratorIPPN2BC4Base8BasicObjESt6vectorIS4_SaIS4_EEEC1ERKS5_ @75
    _ZN9__gnu_cxx17__normal_iteratorIPPN2BC4Base8BasicObjESt6vectorIS4_SaIS4_EEEppEv @76
    _ZN9__gnu_cxxmiIPKPN2BC4Base8BasicObjESt6vectorIS4_SaIS4_EEEENS_17__normal_iteratorIT_T0_E15difference_typeERKSD_SG_ @77
    _ZN9__gnu_cxxmiIPPN2BC4Base8BasicObjESt6vectorIS4_SaIS4_EEEENS_17__normal_iteratorIT_T0_E15difference_typeERKSC_SF_ @78
    _ZN9__gnu_cxxneIPPN2BC4Base8BasicObjESt6vectorIS4_SaIS4_EEEEbRKNS_17__normal_iteratorIT_T0_EESE_ @79
    _ZNK2BC4Base10ObjManager12getClassNameB5cxx11Ev @80
    _ZNK2BC4Base10VectorLike12getClassNameB5cxx11Ev @81
    _ZNK2BC4Base13__BasicVector12getClassNameB5cxx11Ev @82
    _ZNK2BC4Base13__BasicVector4bGetEi @83
    _ZNK2BC4Base13__BasicVector7getSizeEv @84
    _ZNK2BC4Base13__BasicVector9getObjNumEv @85
    _ZNK2BC4Base3App7getNameB5cxx11Ev @86
    _ZNK2BC4Base3Obj12getClassNameB5cxx11Ev @87
    _ZNK2BC4Base3Obj5getIdEv @88
    _ZNK2BC4Base3Obj7getNickB5cxx11Ev @89
    _ZNK2BC4Base8BasicObj12getClassNameB5cxx11Ev @90
    _ZNK2BC4Base8__Vector12getClassNameB5cxx11Ev @91
    _ZNK2BC4Base8__Vector3getEi @92
    _ZNK2BC4Base8__Vector4bGetEi @93
    _ZNK2BC4Base8__Vector9isContainEi @94
    _ZNK9__gnu_cxx13new_allocatorIPN2BC4Base8BasicObjEE8max_sizeEv @95
    _ZNK9__gnu_cxx13new_allocatorISt13_Rb_tree_nodeISt4pairIKiPN2BC4Base3ObjEEEE8max_sizeEv @96
    _ZNK9__gnu_cxx16__aligned_membufISt4pairIKiPN2BC4Base3ObjEEE6_M_ptrEv @97
    _ZNK9__gnu_cxx16__aligned_membufISt4pairIKiPN2BC4Base3ObjEEE7_M_addrEv @98
    _ZNK9__gnu_cxx17__normal_iteratorIPKPN2BC4Base8BasicObjESt6vectorIS4_SaIS4_EEE4baseEv @99
    _ZNK9__gnu_cxx17__normal_iteratorIPPN2BC4Base8BasicObjESt6vectorIS4_SaIS4_EEE4baseEv @100
    _ZNK9__gnu_cxx17__normal_iteratorIPPN2BC4Base8BasicObjESt6vectorIS4_SaIS4_EEEdeEv @101
    _ZNK9__gnu_cxx17__normal_iteratorIPPN2BC4Base8BasicObjESt6vectorIS4_SaIS4_EEEplEi @102
    _ZNKSt10_Select1stISt4pairIKiPN2BC4Base3ObjEEEclERKS6_ @103
    _ZNKSt10_Select1stISt4pairIKiPN2BC4Base3ObjEEEclIS0_IiS5_EEERNT_10first_typeERSA_ @104
    _ZNKSt12_Vector_baseIPN2BC4Base8BasicObjESaIS3_EE19_M_get_Tp_allocatorEv @105
    _ZNKSt13_Rb_tree_nodeISt4pairIKiPN2BC4Base3ObjEEE9_M_valptrEv @106
    _ZNKSt13move_iteratorIPPN2BC4Base8BasicObjEE4baseEv @107
    _ZNKSt17_Rb_tree_iteratorISt4pairIKiPN2BC4Base3ObjEEEeqERKS7_ @108
    _ZNKSt17_Rb_tree_iteratorISt4pairIKiPN2BC4Base3ObjEEEneERKS7_ @109
    _ZNKSt17_Rb_tree_iteratorISt4pairIKiPN2BC4Base3ObjEEEptEv @110
    _ZNKSt23_Rb_tree_const_iteratorISt4pairIKiPN2BC4Base3ObjEEEeqERKS7_ @111
    _ZNKSt23_Rb_tree_const_iteratorISt4pairIKiPN2BC4Base3ObjEEEneERKS7_ @112
    _ZNKSt3mapIiPN2BC4Base3ObjESt4lessIiESaISt4pairIKiS3_EEE5countERS7_ @113
    _ZNKSt4lessIiEclERKiS2_ @114
    _ZNKSt6vectorIPN2BC4Base8BasicObjESaIS3_EE12_M_check_lenEjPKc @115
    _ZNKSt6vectorIPN2BC4Base8BasicObjESaIS3_EE3endEv @116
    _ZNKSt6vectorIPN2BC4Base8BasicObjESaIS3_EE4sizeEv @117
    _ZNKSt6vectorIPN2BC4Base8BasicObjESaIS3_EE5beginEv @118
    _ZNKSt6vectorIPN2BC4Base8BasicObjESaIS3_EE6cbeginEv @119
    _ZNKSt6vectorIPN2BC4Base8BasicObjESaIS3_EE8max_sizeEv @120
    _ZNKSt6vectorIPN2BC4Base8BasicObjESaIS3_EEixEj @121
    _ZNKSt8_Rb_treeIiSt4pairIKiPN2BC4Base3ObjEESt10_Select1stIS6_ESt4lessIiESaIS6_EE11_Alloc_nodeclIS0_IiS5_EEEPSt13_Rb_tree_nodeIS6_EOT_ @122
    _ZNKSt8_Rb_treeIiSt4pairIKiPN2BC4Base3ObjEESt10_Select1stIS6_ESt4lessIiESaIS6_EE14_M_lower_boundEPKSt13_Rb_tree_nodeIS6_EPKSt18_Rb_tree_node_baseRS1_ @123
    _ZNKSt8_Rb_treeIiSt4pairIKiPN2BC4Base3ObjEESt10_Select1stIS6_ESt4lessIiESaIS6_EE3endEv @124
    _ZNKSt8_Rb_treeIiSt4pairIKiPN2BC4Base3ObjEESt10_Select1stIS6_ESt4lessIiESaIS6_EE4findERS1_ @125
    _ZNKSt8_Rb_treeIiSt4pairIKiPN2BC4Base3ObjEESt10_Select1stIS6_ESt4lessIiESaIS6_EE4sizeEv @126
    _ZNKSt8_Rb_treeIiSt4pairIKiPN2BC4Base3ObjEESt10_Select1stIS6_ESt4lessIiESaIS6_EE6_M_endEv @127
    _ZNKSt8_Rb_treeIiSt4pairIKiPN2BC4Base3ObjEESt10_Select1stIS6_ESt4lessIiESaIS6_EE8_M_beginEv @128
    _ZNSaIPN2BC4Base8BasicObjEEC1ERKS3_ @129
    _ZNSaIPN2BC4Base8BasicObjEEC2ERKS3_ @130
    _ZNSaIPN2BC4Base8BasicObjEEC2Ev @131
    _ZNSaIPN2BC4Base8BasicObjEED1Ev @132
    _ZNSaIPN2BC4Base8BasicObjEED2Ev @133
    _ZNSaISt13_Rb_tree_nodeISt4pairIKiPN2BC4Base3ObjEEEEC2Ev @134
    _ZNSaISt13_Rb_tree_nodeISt4pairIKiPN2BC4Base3ObjEEEED2Ev @135
    _ZNSt11__copy_moveILb0ELb1ESt26random_access_iterator_tagE8__copy_mIPN2BC4Base8BasicObjEEEPT_PKS7_SA_S8_ @136
    _ZNSt11__copy_moveILb1ELb1ESt26random_access_iterator_tagE8__copy_mIPN2BC4Base8BasicObjEEEPT_PKS7_SA_S8_ @137
    _ZNSt12_Destroy_auxILb1EE9__destroyIPPN2BC4Base8BasicObjEEEvT_S7_ @138
    _ZNSt12_Vector_baseIPN2BC4Base8BasicObjESaIS3_EE11_M_allocateEj @139
    _ZNSt12_Vector_baseIPN2BC4Base8BasicObjESaIS3_EE12_Vector_implC1ERKS4_ @140
    _ZNSt12_Vector_baseIPN2BC4Base8BasicObjESaIS3_EE12_Vector_implC1Ev @141
    _ZNSt12_Vector_baseIPN2BC4Base8BasicObjESaIS3_EE12_Vector_implD1Ev @142
    _ZNSt12_Vector_baseIPN2BC4Base8BasicObjESaIS3_EE13_M_deallocateEPS3_j @143
    _ZNSt12_Vector_baseIPN2BC4Base8BasicObjESaIS3_EE17_M_create_storageEj @144
    _ZNSt12_Vector_baseIPN2BC4Base8BasicObjESaIS3_EE19_M_get_Tp_allocatorEv @145
    _ZNSt12_Vector_baseIPN2BC4Base8BasicObjESaIS3_EEC2EjRKS4_ @146
    _ZNSt12_Vector_baseIPN2BC4Base8BasicObjESaIS3_EEC2Ev @147
    _ZNSt12_Vector_baseIPN2BC4Base8BasicObjESaIS3_EED2Ev @148
    _ZNSt13_Rb_tree_nodeISt4pairIKiPN2BC4Base3ObjEEE9_M_valptrEv @149
    _ZNSt13move_iteratorIPPN2BC4Base8BasicObjEEC1ES4_ @150
    _ZNSt15_Rb_tree_header8_M_resetEv @151
    _ZNSt15_Rb_tree_headerC2Ev @152
    _ZNSt16allocator_traitsISaIPN2BC4Base8BasicObjEEE10deallocateERS4_PS3_j @153
    _ZNSt16allocator_traitsISaIPN2BC4Base8BasicObjEEE37select_on_container_copy_constructionERKS4_ @154
    _ZNSt16allocator_traitsISaIPN2BC4Base8BasicObjEEE7destroyIS3_EEvRS4_PT_ @155
    _ZNSt16allocator_traitsISaIPN2BC4Base8BasicObjEEE8allocateERS4_j @156
    _ZNSt16allocator_traitsISaIPN2BC4Base8BasicObjEEE8max_sizeERKS4_ @157
    _ZNSt16allocator_traitsISaIPN2BC4Base8BasicObjEEE9constructIS3_JS3_EEEvRS4_PT_DpOT0_ @158
    _ZNSt16allocator_traitsISaISt13_Rb_tree_nodeISt4pairIKiPN2BC4Base3ObjEEEEE10deallocateERS9_PS8_j @159
    _ZNSt16allocator_traitsISaISt13_Rb_tree_nodeISt4pairIKiPN2BC4Base3ObjEEEEE7destroyIS7_EEvRS9_PT_ @160
    _ZNSt16allocator_traitsISaISt13_Rb_tree_nodeISt4pairIKiPN2BC4Base3ObjEEEEE8allocateERS9_j @161
    _ZNSt16allocator_traitsISaISt13_Rb_tree_nodeISt4pairIKiPN2BC4Base3ObjEEEEE9constructIS7_JS1_IiS6_EEEEvRS9_PT_DpOT0_ @162
    _ZNSt17_Rb_tree_iteratorISt4pairIKiPN2BC4Base3ObjEEEC1EPSt18_Rb_tree_node_base @163
    _ZNSt17_Rb_tree_iteratorISt4pairIKiPN2BC4Base3ObjEEEC1Ev @164
    _ZNSt17_Rb_tree_iteratorISt4pairIKiPN2BC4Base3ObjEEEmmEv @165
    _ZNSt17_Rb_tree_iteratorISt4pairIKiPN2BC4Base3ObjEEEppEi @166
    _ZNSt20_Rb_tree_key_compareISt4lessIiEEC2Ev @167
    _ZNSt20__uninitialized_copyILb1EE13__uninit_copyIN9__gnu_cxx17__normal_iteratorIPKPN2BC4Base8BasicObjESt6vectorIS7_SaIS7_EEEEPS7_EET0_T_SG_SF_ @168
    _ZNSt20__uninitialized_copyILb1EE13__uninit_copyISt13move_iteratorIPPN2BC4Base8BasicObjEES7_EET0_T_SA_S9_ @169
    _ZNSt23_Rb_tree_const_iteratorISt4pairIKiPN2BC4Base3ObjEEEC1EPKSt18_Rb_tree_node_base @170
    _ZNSt23_Rb_tree_const_iteratorISt4pairIKiPN2BC4Base3ObjEEEC1ERKSt17_Rb_tree_iteratorIS6_E @171
    _ZNSt23_Rb_tree_const_iteratorISt4pairIKiPN2BC4Base3ObjEEEppEi @172
    _ZNSt3mapIiPN2BC4Base3ObjESt4lessIiESaISt4pairIKiS3_EEE3endEv @173
    _ZNSt3mapIiPN2BC4Base3ObjESt4lessIiESaISt4pairIKiS3_EEE5beginEv @174
    _ZNSt3mapIiPN2BC4Base3ObjESt4lessIiESaISt4pairIKiS3_EEE5eraseERS7_ @175
    _ZNSt3mapIiPN2BC4Base3ObjESt4lessIiESaISt4pairIKiS3_EEE6insertIS6_IiS3_EvEES6_ISt17_Rb_tree_iteratorIS8_EbEOT_ @176
    _ZNSt3mapIiPN2BC4Base3ObjESt4lessIiESaISt4pairIKiS3_EEEC1Ev @177
    _ZNSt3mapIiPN2BC4Base3ObjESt4lessIiESaISt4pairIKiS3_EEED1Ev @178
    _ZNSt4pairIKiPN2BC4Base3ObjEEC1IiS4_Lb1EEEOS_IT_T0_E @179
    _ZNSt4pairIPSt18_Rb_tree_node_baseS1_EC1IRPSt13_Rb_tree_nodeIS_IKiPN2BC4Base3ObjEEERS1_Lb1EEEOT_OT0_ @180
    _ZNSt4pairIPSt18_Rb_tree_node_baseS1_EC1IRS1_Lb1EEEOT_RKS1_ @181
    _ZNSt4pairISt17_Rb_tree_iteratorIS_IKiPN2BC4Base3ObjEEES7_EC1IS7_S7_Lb1EEEOT_OT0_ @182
    _ZNSt4pairISt17_Rb_tree_iteratorIS_IKiPN2BC4Base3ObjEEEbEC1IS7_bLb1EEEOT_OT0_ @183
    _ZNSt4pairIiPN2BC4Base3ObjEEC1IRiS3_Lb1EEEOT_OT0_ @184
    _ZNSt6vectorIPN2BC4Base8BasicObjESaIS3_EE12emplace_backIJS3_EEEvDpOT_ @185
    _ZNSt6vectorIPN2BC4Base8BasicObjESaIS3_EE17_M_realloc_insertIJS3_EEEvN9__gnu_cxx17__normal_iteratorIPS3_S5_EEDpOT_ @186
    _ZNSt6vectorIPN2BC4Base8BasicObjESaIS3_EE3endEv @187
    _ZNSt6vectorIPN2BC4Base8BasicObjESaIS3_EE5beginEv @188
    _ZNSt6vectorIPN2BC4Base8BasicObjESaIS3_EE5eraseEN9__gnu_cxx17__normal_iteratorIPKS3_S5_EE @189
    _ZNSt6vectorIPN2BC4Base8BasicObjESaIS3_EE8_M_eraseEN9__gnu_cxx17__normal_iteratorIPS3_S5_EE @190
    _ZNSt6vectorIPN2BC4Base8BasicObjESaIS3_EE9push_backEOS3_ @191
    _ZNSt6vectorIPN2BC4Base8BasicObjESaIS3_EEC1ERKS5_ @192
    _ZNSt6vectorIPN2BC4Base8BasicObjESaIS3_EEC1Ev @193
    _ZNSt6vectorIPN2BC4Base8BasicObjESaIS3_EED1Ev @194
    _ZNSt6vectorIPN2BC4Base8BasicObjESaIS3_EEixEj @195
    _ZNSt8_Rb_treeIiSt4pairIKiPN2BC4Base3ObjEESt10_Select1stIS6_ESt4lessIiESaIS6_EE10_M_insert_IS0_IiS5_ENSC_11_Alloc_nodeEEESt17_Rb_tree_iteratorIS6_EPSt18_Rb_tree_node_baseSJ_OT_RT0_ @196
    _ZNSt8_Rb_treeIiSt4pairIKiPN2BC4Base3ObjEESt10_Select1stIS6_ESt4lessIiESaIS6_EE11_Alloc_nodeC1ERSC_ @197
    _ZNSt8_Rb_treeIiSt4pairIKiPN2BC4Base3ObjEESt10_Select1stIS6_ESt4lessIiESaIS6_EE11_M_get_nodeEv @198
    _ZNSt8_Rb_treeIiSt4pairIKiPN2BC4Base3ObjEESt10_Select1stIS6_ESt4lessIiESaIS6_EE11_M_put_nodeEPSt13_Rb_tree_nodeIS6_E @199
    _ZNSt8_Rb_treeIiSt4pairIKiPN2BC4Base3ObjEESt10_Select1stIS6_ESt4lessIiESaIS6_EE11equal_rangeERS1_ @200
    _ZNSt8_Rb_treeIiSt4pairIKiPN2BC4Base3ObjEESt10_Select1stIS6_ESt4lessIiESaIS6_EE12_M_drop_nodeEPSt13_Rb_tree_nodeIS6_E @201
    _ZNSt8_Rb_treeIiSt4pairIKiPN2BC4Base3ObjEESt10_Select1stIS6_ESt4lessIiESaIS6_EE12_M_erase_auxESt23_Rb_tree_const_iteratorIS6_E @202
    _ZNSt8_Rb_treeIiSt4pairIKiPN2BC4Base3ObjEESt10_Select1stIS6_ESt4lessIiESaIS6_EE12_M_erase_auxESt23_Rb_tree_const_iteratorIS6_ESE_ @203
    _ZNSt8_Rb_treeIiSt4pairIKiPN2BC4Base3ObjEESt10_Select1stIS6_ESt4lessIiESaIS6_EE13_Rb_tree_implISA_Lb1EEC1Ev @204
    _ZNSt8_Rb_treeIiSt4pairIKiPN2BC4Base3ObjEESt10_Select1stIS6_ESt4lessIiESaIS6_EE13_Rb_tree_implISA_Lb1EED1Ev @205
    _ZNSt8_Rb_treeIiSt4pairIKiPN2BC4Base3ObjEESt10_Select1stIS6_ESt4lessIiESaIS6_EE14_M_create_nodeIJS0_IiS5_EEEEPSt13_Rb_tree_nodeIS6_EDpOT_ @206
    _ZNSt8_Rb_treeIiSt4pairIKiPN2BC4Base3ObjEESt10_Select1stIS6_ESt4lessIiESaIS6_EE14_M_lower_boundEPSt13_Rb_tree_nodeIS6_EPSt18_Rb_tree_node_baseRS1_ @207
    _ZNSt8_Rb_treeIiSt4pairIKiPN2BC4Base3ObjEESt10_Select1stIS6_ESt4lessIiESaIS6_EE14_M_upper_boundEPSt13_Rb_tree_nodeIS6_EPSt18_Rb_tree_node_baseRS1_ @208
    _ZNSt8_Rb_treeIiSt4pairIKiPN2BC4Base3ObjEESt10_Select1stIS6_ESt4lessIiESaIS6_EE15_M_destroy_nodeEPSt13_Rb_tree_nodeIS6_E @209
    _ZNSt8_Rb_treeIiSt4pairIKiPN2BC4Base3ObjEESt10_Select1stIS6_ESt4lessIiESaIS6_EE16_M_insert_uniqueIS0_IiS5_EEES0_ISt17_Rb_tree_iteratorIS6_EbEOT_ @210
    _ZNSt8_Rb_treeIiSt4pairIKiPN2BC4Base3ObjEESt10_Select1stIS6_ESt4lessIiESaIS6_EE17_M_construct_nodeIJS0_IiS5_EEEEvPSt13_Rb_tree_nodeIS6_EDpOT_ @211
    _ZNSt8_Rb_treeIiSt4pairIKiPN2BC4Base3ObjEESt10_Select1stIS6_ESt4lessIiESaIS6_EE21_M_get_Node_allocatorEv @212
    _ZNSt8_Rb_treeIiSt4pairIKiPN2BC4Base3ObjEESt10_Select1stIS6_ESt4lessIiESaIS6_EE24_M_get_insert_unique_posERS1_ @213
    _ZNSt8_Rb_treeIiSt4pairIKiPN2BC4Base3ObjEESt10_Select1stIS6_ESt4lessIiESaIS6_EE3endEv @214
    _ZNSt8_Rb_treeIiSt4pairIKiPN2BC4Base3ObjEESt10_Select1stIS6_ESt4lessIiESaIS6_EE5beginEv @215
    _ZNSt8_Rb_treeIiSt4pairIKiPN2BC4Base3ObjEESt10_Select1stIS6_ESt4lessIiESaIS6_EE5clearEv @216
    _ZNSt8_Rb_treeIiSt4pairIKiPN2BC4Base3ObjEESt10_Select1stIS6_ESt4lessIiESaIS6_EE5eraseERS1_ @217
    _ZNSt8_Rb_treeIiSt4pairIKiPN2BC4Base3ObjEESt10_Select1stIS6_ESt4lessIiESaIS6_EE6_M_endEv @218
    _ZNSt8_Rb_treeIiSt4pairIKiPN2BC4Base3ObjEESt10_Select1stIS6_ESt4lessIiESaIS6_EE6_S_keyEPKSt13_Rb_tree_nodeIS6_E @219
    _ZNSt8_Rb_treeIiSt4pairIKiPN2BC4Base3ObjEESt10_Select1stIS6_ESt4lessIiESaIS6_EE6_S_keyEPKSt18_Rb_tree_node_base @220
    _ZNSt8_Rb_treeIiSt4pairIKiPN2BC4Base3ObjEESt10_Select1stIS6_ESt4lessIiESaIS6_EE7_S_leftEPKSt18_Rb_tree_node_base @221
    _ZNSt8_Rb_treeIiSt4pairIKiPN2BC4Base3ObjEESt10_Select1stIS6_ESt4lessIiESaIS6_EE7_S_leftEPSt18_Rb_tree_node_base @222
    _ZNSt8_Rb_treeIiSt4pairIKiPN2BC4Base3ObjEESt10_Select1stIS6_ESt4lessIiESaIS6_EE8_M_beginEv @223
    _ZNSt8_Rb_treeIiSt4pairIKiPN2BC4Base3ObjEESt10_Select1stIS6_ESt4lessIiESaIS6_EE8_M_eraseEPSt13_Rb_tree_nodeIS6_E @224
    _ZNSt8_Rb_treeIiSt4pairIKiPN2BC4Base3ObjEESt10_Select1stIS6_ESt4lessIiESaIS6_EE8_S_rightEPKSt18_Rb_tree_node_base @225
    _ZNSt8_Rb_treeIiSt4pairIKiPN2BC4Base3ObjEESt10_Select1stIS6_ESt4lessIiESaIS6_EE8_S_rightEPSt18_Rb_tree_node_base @226
    _ZNSt8_Rb_treeIiSt4pairIKiPN2BC4Base3ObjEESt10_Select1stIS6_ESt4lessIiESaIS6_EE8_S_valueEPKSt13_Rb_tree_nodeIS6_E @227
    _ZNSt8_Rb_treeIiSt4pairIKiPN2BC4Base3ObjEESt10_Select1stIS6_ESt4lessIiESaIS6_EE8_S_valueEPKSt18_Rb_tree_node_base @228
    _ZNSt8_Rb_treeIiSt4pairIKiPN2BC4Base3ObjEESt10_Select1stIS6_ESt4lessIiESaIS6_EEC1Ev @229
    _ZNSt8_Rb_treeIiSt4pairIKiPN2BC4Base3ObjEESt10_Select1stIS6_ESt4lessIiESaIS6_EED1Ev @230
    _ZNSt8ios_base4setfESt13_Ios_FmtflagsS0_ @231
    _ZSt12__miter_baseIN9__gnu_cxx17__normal_iteratorIPKPN2BC4Base8BasicObjESt6vectorIS5_SaIS5_EEEEET_SC_ @232
    _ZSt12__miter_baseIN9__gnu_cxx17__normal_iteratorIPPN2BC4Base8BasicObjESt6vectorIS5_SaIS5_EEEEET_SB_ @233
    _ZSt12__miter_baseIPPN2BC4Base8BasicObjEEDTcl12__miter_basecldtfp_4baseEEESt13move_iteratorIT_E @234
    _ZSt12__miter_baseIPPN2BC4Base8BasicObjEET_S5_ @235
    _ZSt12__niter_baseIPKPN2BC4Base8BasicObjESt6vectorIS3_SaIS3_EEET_N9__gnu_cxx17__normal_iteratorIS9_T0_EE @236
    _ZSt12__niter_baseIPPN2BC4Base8BasicObjEET_S5_ @237
    _ZSt12__niter_baseIPPN2BC4Base8BasicObjESt6vectorIS3_SaIS3_EEET_N9__gnu_cxx17__normal_iteratorIS8_T0_EE @238
    _ZSt13__copy_move_aILb0EPKPN2BC4Base8BasicObjEPS3_ET1_T0_S8_S7_ @239
    _ZSt13__copy_move_aILb1EPPN2BC4Base8BasicObjES4_ET1_T0_S6_S5_ @240
    _ZSt14__copy_move_a2ILb0EN9__gnu_cxx17__normal_iteratorIPKPN2BC4Base8BasicObjESt6vectorIS5_SaIS5_EEEEPS5_ET1_T0_SE_SD_ @241
    _ZSt14__copy_move_a2ILb1EN9__gnu_cxx17__normal_iteratorIPPN2BC4Base8BasicObjESt6vectorIS5_SaIS5_EEEESA_ET1_T0_SC_SB_ @242
    _ZSt14__copy_move_a2ILb1EPPN2BC4Base8BasicObjES4_ET1_T0_S6_S5_ @243
    _ZSt18uninitialized_copyIN9__gnu_cxx17__normal_iteratorIPKPN2BC4Base8BasicObjESt6vectorIS5_SaIS5_EEEEPS5_ET0_T_SE_SD_ @244
    _ZSt18uninitialized_copyISt13move_iteratorIPPN2BC4Base8BasicObjEES5_ET0_T_S8_S7_ @245
    _ZSt22__uninitialized_copy_aIN9__gnu_cxx17__normal_iteratorIPKPN2BC4Base8BasicObjESt6vectorIS5_SaIS5_EEEEPS5_S5_ET0_T_SE_SD_RSaIT1_E @246
    _ZSt22__uninitialized_copy_aISt13move_iteratorIPPN2BC4Base8BasicObjEES5_S4_ET0_T_S8_S7_RSaIT1_E @247
    _ZSt32__make_move_if_noexcept_iteratorIPN2BC4Base8BasicObjESt13move_iteratorIPS3_EET0_PT_ @248
    _ZSt34__uninitialized_move_if_noexcept_aIPPN2BC4Base8BasicObjES4_SaIS3_EET0_T_S7_S6_RT1_ @249
    _ZSt3maxIjERKT_S2_S2_ @250
    _ZSt4copyIN9__gnu_cxx17__normal_iteratorIPKPN2BC4Base8BasicObjESt6vectorIS5_SaIS5_EEEEPS5_ET0_T_SE_SD_ @251
    _ZSt4copyISt13move_iteratorIPPN2BC4Base8BasicObjEES5_ET0_T_S8_S7_ @252
    _ZSt4leftRSt8ios_base @253
    _ZSt4moveIN9__gnu_cxx17__normal_iteratorIPPN2BC4Base8BasicObjESt6vectorIS5_SaIS5_EEEESA_ET0_T_SC_SB_ @254
    _ZSt4moveIRPN2BC4Base8BasicObjEEONSt16remove_referenceIT_E4typeEOS6_ @255
    _ZSt4setwi @256
    _ZSt7forwardIPN2BC4Base3ObjEEOT_RNSt16remove_referenceIS4_E4typeE @257
    _ZSt7forwardIPN2BC4Base8BasicObjEEOT_RNSt16remove_referenceIS4_E4typeE @258
    _ZSt7forwardIRPSt13_Rb_tree_nodeISt4pairIKiPN2BC4Base3ObjEEEEOT_RNSt16remove_referenceISB_E4typeE @259
    _ZSt7forwardIRPSt18_Rb_tree_node_baseEOT_RNSt16remove_referenceIS3_E4typeE @260
    _ZSt7forwardIRiEOT_RNSt16remove_referenceIS1_E4typeE @261
    _ZSt7forwardISt17_Rb_tree_iteratorISt4pairIKiPN2BC4Base3ObjEEEEOT_RNSt16remove_referenceIS9_E4typeE @262
    _ZSt7forwardISt4pairIiPN2BC4Base3ObjEEEOT_RNSt16remove_referenceIS6_E4typeE @263
    _ZSt7forwardIbEOT_RNSt16remove_referenceIS0_E4typeE @264
    _ZSt7forwardIiEOT_RNSt16remove_referenceIS0_E4typeE @265
    _ZSt8_DestroyIPPN2BC4Base8BasicObjEEvT_S5_ @266
    _ZSt8_DestroyIPPN2BC4Base8BasicObjES3_EvT_S5_RSaIT0_E @267
    _ZStaNRSt13_Ios_FmtflagsS_ @268
    _ZStanSt13_Ios_FmtflagsS_ @269
    _ZStcoSt13_Ios_Fmtflags @270
    _ZStoRRSt13_Ios_FmtflagsS_ @271
    _ZStorSt13_Ios_FmtflagsS_ @272
    _ZTIN2BC4Base10VectorLikeE @273 DATA
    _ZTIN2BC4Base13__BasicVectorE @274 DATA
    _ZTIN2BC4Base3ObjE @275 DATA
    _ZTIN2BC4Base8BasicObjE @276 DATA
    _ZTIN2BC4Base8__VectorE @277 DATA
    _ZTSN2BC4Base10VectorLikeE @278 DATA
    _ZTSN2BC4Base13__BasicVectorE @279 DATA
    _ZTSN2BC4Base3ObjE @280 DATA
    _ZTSN2BC4Base8BasicObjE @281 DATA
    _ZTSN2BC4Base8__VectorE @282 DATA
    _ZTVN2BC4Base10VectorLikeE @283 DATA
    _ZTVN2BC4Base13__BasicVectorE @284 DATA
    _ZTVN2BC4Base3ObjE @285 DATA
    _ZTVN2BC4Base8BasicObjE @286 DATA
    _ZTVN2BC4Base8__VectorE @287 DATA
    _ZnwjPv @288
